target datalayout = "e-m:e-p270:32:32-p271:32:32-p272:64:64-i64:64-i128:128-f80:128-n8:16:32:64-S128"
target triple = "x86_64-pc-linux-gnu"

%struct.lua_TValue = type { %union.Value, [1 x i32], i32 }
%union.Value = type { ptr }
%struct.LuaTable = type { i8, i8, i8, i8, i8, i8, i8, i8, i32, %union.anon.4, ptr, ptr, ptr, ptr }
%union.anon.4 = type { i32 }
%struct.GCheader = type { i8, i8, i8 }

; Function Attrs: mustprogress uwtable
define internal noundef i32 @_ZL18luauF_setmetatableP9lua_StateP10lua_TValueS2_iS2_i(ptr noundef %0, ptr noundef %1, ptr noundef %2, i32 noundef %3, ptr noundef %4, i32 noundef %5) #3 {
  %7 = alloca i32, align 4
  %8 = alloca ptr, align 8
  %9 = alloca ptr, align 8
  %10 = alloca ptr, align 8
  %11 = alloca i32, align 4
  %12 = alloca ptr, align 8
  %13 = alloca i32, align 4
  %14 = alloca ptr, align 8
  %15 = alloca i32, align 4
  %16 = alloca ptr, align 8
  %17 = alloca ptr, align 8
  store ptr %0, ptr %8, align 8, !tbaa !4
  store ptr %1, ptr %9, align 8, !tbaa !9
  store ptr %2, ptr %10, align 8, !tbaa !9
  store i32 %3, ptr %11, align 4, !tbaa !11
  store ptr %4, ptr %12, align 8, !tbaa !9
  store i32 %5, ptr %13, align 4, !tbaa !11
  %18 = load i32, ptr %13, align 4, !tbaa !11
  %19 = icmp sge i32 %18, 2
  br i1 %19, label %20, label %83

20:                                               ; preds = %6
  %21 = load i32, ptr %11, align 4, !tbaa !11
  %22 = icmp sle i32 %21, 1
  br i1 %22, label %23, label %83

23:                                               ; preds = %20
  %24 = load ptr, ptr %10, align 8, !tbaa !9
  %25 = getelementptr inbounds nuw %struct.lua_TValue, ptr %24, i32 0, i32 2
  %26 = load i32, ptr %25, align 4, !tbaa !13
  %27 = icmp eq i32 %26, 6
  br i1 %27, label %28, label %83

28:                                               ; preds = %23
  %29 = load ptr, ptr %12, align 8, !tbaa !9
  %30 = getelementptr inbounds nuw %struct.lua_TValue, ptr %29, i32 0, i32 2
  %31 = load i32, ptr %30, align 4, !tbaa !13
  %32 = icmp eq i32 %31, 6
  br i1 %32, label %33, label %83

33:                                               ; preds = %28
  call void @llvm.lifetime.start.p0(i64 8, ptr %14) #17
  %34 = load ptr, ptr %10, align 8, !tbaa !9
  %35 = getelementptr inbounds nuw %struct.lua_TValue, ptr %34, i32 0, i32 0
  %36 = load ptr, ptr %35, align 8, !tbaa !15
  store ptr %36, ptr %14, align 8, !tbaa !57
  %37 = load ptr, ptr %14, align 8, !tbaa !57
  %38 = getelementptr inbounds nuw %struct.LuaTable, ptr %37, i32 0, i32 4
  %39 = load i8, ptr %38, align 4, !tbaa !58
  %40 = icmp ne i8 %39, 0
  br i1 %40, label %46, label %41

41:                                               ; preds = %33
  %42 = load ptr, ptr %14, align 8, !tbaa !57
  %43 = getelementptr inbounds nuw %struct.LuaTable, ptr %42, i32 0, i32 10
  %44 = load ptr, ptr %43, align 8, !tbaa !80
  %45 = icmp ne ptr %44, null
  br i1 %45, label %46, label %47

46:                                               ; preds = %41, %33
  store i32 -1, ptr %7, align 4
  store i32 1, ptr %15, align 4
  br label %82

47:                                               ; preds = %41
  call void @llvm.lifetime.start.p0(i64 8, ptr %16) #17
  %48 = load ptr, ptr %12, align 8, !tbaa !9
  %49 = getelementptr inbounds nuw %struct.lua_TValue, ptr %48, i32 0, i32 0
  %50 = load ptr, ptr %49, align 8, !tbaa !15
  store ptr %50, ptr %16, align 8, !tbaa !57
  %51 = load ptr, ptr %16, align 8, !tbaa !57
  %52 = load ptr, ptr %14, align 8, !tbaa !57
  %53 = getelementptr inbounds nuw %struct.LuaTable, ptr %52, i32 0, i32 10
  store ptr %51, ptr %53, align 8, !tbaa !80
  %54 = load ptr, ptr %14, align 8, !tbaa !57
  %55 = getelementptr inbounds %struct.LuaTable, ptr %54, i64 0
  %56 = getelementptr inbounds nuw %struct.GCheader, ptr %55, i32 0, i32 1
  %57 = load i8, ptr %56, align 1, !tbaa !15
  %58 = zext i8 %57 to i32
  %59 = and i32 %58, 4
  %60 = icmp ne i32 %59, 0
  br i1 %60, label %61, label %75

61:                                               ; preds = %47
  %62 = load ptr, ptr %16, align 8, !tbaa !57
  %63 = getelementptr inbounds %struct.LuaTable, ptr %62, i64 0
  %64 = getelementptr inbounds nuw %struct.GCheader, ptr %63, i32 0, i32 1
  %65 = load i8, ptr %64, align 1, !tbaa !15
  %66 = zext i8 %65 to i32
  %67 = and i32 %66, 3
  %68 = icmp ne i32 %67, 0
  br i1 %68, label %69, label %75

69:                                               ; preds = %61
  %70 = load ptr, ptr %8, align 8, !tbaa !4
  %71 = load ptr, ptr %14, align 8, !tbaa !57
  %72 = getelementptr inbounds %struct.LuaTable, ptr %71, i64 0
  %73 = load ptr, ptr %16, align 8, !tbaa !57
  %74 = getelementptr inbounds %struct.LuaTable, ptr %73, i64 0
  call void @_Z13luaC_barrierfP9lua_StateP8GCObjectS2_(ptr noundef %70, ptr noundef %72, ptr noundef %74)
  br label %75

75:                                               ; preds = %69, %61, %47
  call void @llvm.lifetime.start.p0(i64 8, ptr %17) #17
  %76 = load ptr, ptr %9, align 8, !tbaa !9
  store ptr %76, ptr %17, align 8, !tbaa !9
  %77 = load ptr, ptr %14, align 8, !tbaa !57
  %78 = load ptr, ptr %17, align 8, !tbaa !9
  %79 = getelementptr inbounds nuw %struct.lua_TValue, ptr %78, i32 0, i32 0
  store ptr %77, ptr %79, align 8, !tbaa !15
  %80 = load ptr, ptr %17, align 8, !tbaa !9
  %81 = getelementptr inbounds nuw %struct.lua_TValue, ptr %80, i32 0, i32 2
  store i32 6, ptr %81, align 4, !tbaa !13
  call void @llvm.lifetime.end.p0(i64 8, ptr %17) #17
  store i32 1, ptr %7, align 4
  store i32 1, ptr %15, align 4
  call void @llvm.lifetime.end.p0(i64 8, ptr %16) #17
  br label %82

82:                                               ; preds = %75, %46
  call void @llvm.lifetime.end.p0(i64 8, ptr %14) #17
  br label %84

83:                                               ; preds = %28, %23, %20, %6
  store i32 -1, ptr %7, align 4
  br label %84

84:                                               ; preds = %83, %82
  %85 = load i32, ptr %7, align 4
  ret i32 %85
}