; Function Attrs: mustprogress uwtable
define internal noundef range(i32 -1, 2) i32 @_ZL18luauF_setmetatableP9lua_StateP10lua_TValueS2_iS2_i(ptr noundef %0, ptr noundef writeonly captures(none) %1, ptr noundef readonly captures(none) %2, i32 noundef %3, ptr noundef readonly captures(none) %4, i32 noundef %5) #8 {
  %7 = icmp sgt i32 %5, 1
  %8 = icmp slt i32 %3, 2
  %or.cond = and i1 %8, %7
  br i1 %or.cond, label %9, label %36

9:                                                ; preds = %6
  %10 = getelementptr inbounds nuw i8, ptr %2, i64 12
  %11 = load i32, ptr %10, align 4, !tbaa !4
  %12 = icmp eq i32 %11, 6
  br i1 %12, label %13, label %36

13:                                               ; preds = %9
  %14 = getelementptr inbounds nuw i8, ptr %4, i64 12
  %15 = load i32, ptr %14, align 4, !tbaa !4
  %16 = icmp eq i32 %15, 6
  br i1 %16, label %17, label %36

17:                                               ; preds = %13
  %18 = load ptr, ptr %2, align 8, !tbaa !9
  %19 = getelementptr inbounds nuw i8, ptr %18, i64 4
  %20 = load i8, ptr %19, align 4, !tbaa !53
  %.not = icmp eq i8 %20, 0
  br i1 %.not, label %21, label %36

21:                                               ; preds = %17
  %22 = getelementptr inbounds nuw i8, ptr %18, i64 16
  %23 = load ptr, ptr %22, align 8, !tbaa !78
  %.not20 = icmp eq ptr %23, null
  br i1 %.not20, label %24, label %36

24:                                               ; preds = %21
  %25 = load ptr, ptr %4, align 8, !tbaa !9
  store ptr %25, ptr %22, align 8, !tbaa !78
  %26 = getelementptr inbounds nuw i8, ptr %18, i64 1
  %27 = load i8, ptr %26, align 1, !tbaa !9
  %28 = and i8 %27, 4
  %.not21 = icmp eq i8 %28, 0
  br i1 %.not21, label %34, label %29

29:                                               ; preds = %24
  %30 = getelementptr inbounds nuw i8, ptr %25, i64 1
  %31 = load i8, ptr %30, align 1, !tbaa !9
  %32 = and i8 %31, 3
  %.not22 = icmp eq i8 %32, 0
  br i1 %.not22, label %34, label %33

33:                                               ; preds = %29
  tail call void @_Z13luaC_barrierfP9lua_StateP8GCObjectS2_(ptr noundef %0, ptr noundef nonnull %18, ptr noundef nonnull %25)
  br label %34

34:                                               ; preds = %33, %29, %24
  store ptr %18, ptr %1, align 8, !tbaa !9
  %35 = getelementptr inbounds nuw i8, ptr %1, i64 12
  store i32 6, ptr %35, align 4, !tbaa !4
  br label %36

36:                                               ; preds = %6, %9, %13, %34, %21, %17
  %.1 = phi i32 [ 1, %34 ], [ -1, %21 ], [ -1, %17 ], [ -1, %13 ], [ -1, %9 ], [ -1, %6 ]
  ret i32 %.1
}